; Function Attrs: mustprogress nofree norecurse nosync nounwind willreturn memory(read, inaccessiblemem: none) uwtable
define noundef i32 @_ZNK5draco10PointCloud24GetAttributeIdByUniqueIdEj(ptr nocapture noundef nonnull readonly align 8 dereferenceable(164) %0, i32 noundef %1) local_unnamed_addr #5 align 2 {
  %3 = getelementptr inbounds i8, ptr %0, i64 16
  %4 = getelementptr inbounds i8, ptr %0, i64 24
  %5 = load ptr, ptr %4, align 8
  %6 = load ptr, ptr %3, align 8
  %.not = icmp eq ptr %5, %6
  br i1 %.not, label %.loopexit, label %.lr.ph.preheader

.lr.ph.preheader:                                 ; preds = %2
  %7 = ptrtoint ptr %5 to i64
  %8 = ptrtoint ptr %6 to i64
  %9 = sub i64 %7, %8
  %10 = ashr exact i64 %9, 3
  %umax = tail call i64 @llvm.umax.i64(i64 %10, i64 1)
  br label %.lr.ph

.lr.ph:                                           ; preds = %.lr.ph.preheader, %18
  %.08 = phi i64 [ %19, %18 ], [ 0, %.lr.ph.preheader ]
  %11 = getelementptr inbounds %"class.std::unique_ptr.7", ptr %6, i64 %.08
  %12 = load ptr, ptr %11, align 8
  %13 = getelementptr inbounds i8, ptr %12, i64 60
  %14 = load i32, ptr %13, align 4
  %15 = icmp eq i32 %14, %1
  br i1 %15, label %16, label %18

16:                                               ; preds = %.lr.ph
  %17 = trunc i64 %.08 to i32
  br label %.loopexit

18:                                               ; preds = %.lr.ph
  %19 = add nuw i64 %.08, 1
  %exitcond.not = icmp eq i64 %19, %umax
  br i1 %exitcond.not, label %.loopexit, label %.lr.ph, !llvm.loop !6

.loopexit:                                        ; preds = %18, %2, %16
  %.06 = phi i32 [ %17, %16 ], [ -1, %2 ], [ -1, %18 ]
  ret i32 %.06
}